; Function Attrs: nofree nounwind uwtable
define void @stblkck_internal_print(ptr noundef %0, ptr noundef %1) local_unnamed_addr #6 {
  %3 = load ptr, ptr @stdout, align 8, !tbaa !17
  %4 = load ptr, ptr %1, align 8, !tbaa !3
  %5 = getelementptr inbounds nuw i8, ptr %1, i64 8
  %6 = load i32, ptr %5, align 8, !tbaa !12
  %7 = getelementptr inbounds nuw i8, ptr %1, i64 16
  %8 = load i64, ptr %7, align 8, !tbaa !16
  %9 = getelementptr inbounds nuw i8, ptr %1, i64 40
  %10 = tail call i32 (ptr, ptr, ...) @fprintf(ptr noundef %3, ptr noundef nonnull @.str, ptr noundef %0, ptr noundef %4, i32 noundef %6, i64 noundef %8, ptr noundef nonnull %9) #9
  ret void
}